ARM GAS  /tmp/ccs8Dd2F.s 			page 1


   1              		.cpu cortex-m7
   2              		.arch armv7e-m
   3              		.fpu fpv5-sp-d16
   4              		.eabi_attribute 27, 1	@ Tag_ABI_HardFP_use
   5              		.eabi_attribute 28, 1	@ Tag_ABI_VFP_args
   6              		.eabi_attribute 20, 1	@ Tag_ABI_FP_denormal
   7              		.eabi_attribute 21, 1	@ Tag_ABI_FP_exceptions
   8              		.eabi_attribute 23, 3	@ Tag_ABI_FP_number_model
   9              		.eabi_attribute 24, 1	@ Tag_ABI_align8_needed
  10              		.eabi_attribute 25, 1	@ Tag_ABI_align8_preserved
  11              		.eabi_attribute 26, 1	@ Tag_ABI_enum_size
  12              		.eabi_attribute 30, 2	@ Tag_ABI_optimization_goals
  13              		.eabi_attribute 34, 1	@ Tag_CPU_unaligned_access
  14              		.eabi_attribute 18, 4	@ Tag_ABI_PCS_wchar_t
  15              		.file	"shape.c"
  16              	@ GNU C17 (Arch Repository) version 12.2.0 (arm-none-eabi)
  17              	@	compiled by GNU C version 12.1.1 20220730, GMP version 6.2.1, MPFR version 4.1.0-p13, MPC version
  18              	
  19              	@ warning: MPFR header version 4.1.0-p13 differs from library version 4.2.0.
  20              	@ warning: MPC header version 1.2.1 differs from library version 1.3.1.
  21              	@ GGC heuristics: --param ggc-min-expand=100 --param ggc-min-heapsize=131072
  22              	@ options passed: -mthumb -mcpu=cortex-m7 -mfloat-abi=hard -mfpu=fpv5-sp-d16 -march=armv7e-m+fpv5 -
  23              		.text
  24              	.Ltext0:
  25              		.cfi_sections	.debug_frame
  26              		.file 1 "mini3d/shape.c"
  27              		.section	.text.Shape3D_init,"ax",%progbits
  28              		.align	1
  29              		.p2align 4,,15
  30              		.global	Shape3D_init
  31              		.syntax unified
  32              		.thumb
  33              		.thumb_func
  34              		.type	Shape3D_init, %function
  35              	Shape3D_init:
  36              	.LVL0:
  37              	.LFB12:
   1:mini3d/shape.c **** //
   2:mini3d/shape.c **** //  shape.c
   3:mini3d/shape.c **** //  Extension
   4:mini3d/shape.c **** //
   5:mini3d/shape.c **** //  Created by Dave Hayden on 10/7/15.
   6:mini3d/shape.c **** //  Copyright © 2015 Panic, Inc. All rights reserved.
   7:mini3d/shape.c **** //
   8:mini3d/shape.c **** 
   9:mini3d/shape.c **** #include "mini3d.h"
  10:mini3d/shape.c **** #include "shape.h"
  11:mini3d/shape.c **** 
  12:mini3d/shape.c **** void Shape3D_init(Shape3D* shape)
  13:mini3d/shape.c **** {
  38              		.loc 1 13 1 view -0
  39              		.cfi_startproc
  40              		@ args = 0, pretend = 0, frame = 0
  41              		@ frame_needed = 0, uses_anonymous_args = 0
  42              		@ link register save eliminated.
  14:mini3d/shape.c **** 	shape->retainCount = 0;
  43              		.loc 1 14 2 view .LVU1
ARM GAS  /tmp/ccs8Dd2F.s 			page 2


  15:mini3d/shape.c **** 	shape->nPoints = 0;
  44              		.loc 1 15 2 view .LVU2
  45              	@ mini3d/shape.c:14: 	shape->retainCount = 0;
  14:mini3d/shape.c **** 	shape->retainCount = 0;
  46              		.loc 1 14 21 is_stmt 0 view .LVU3
  47 0000 0023     		movs	r3, #0	@ tmp114,
  48              	@ mini3d/shape.c:23: 	shape->isClosed = 0;
  16:mini3d/shape.c **** 	shape->points = NULL;
  17:mini3d/shape.c **** 	shape->nFaces = 0;
  18:mini3d/shape.c **** 	shape->faces = NULL;
  19:mini3d/shape.c **** 	shape->center.x = 0;
  20:mini3d/shape.c **** 	shape->center.y = 0;
  21:mini3d/shape.c **** 	shape->center.z = 0;
  22:mini3d/shape.c **** 	shape->colorBias = 0;
  23:mini3d/shape.c **** 	shape->isClosed = 0;
  49              		.loc 1 23 18 view .LVU4
  50 0002 90F82410 		ldrb	r1, [r0, #36]	@ zero_extendqisi2	@, shape_2(D)->isClosed
  51              	@ mini3d/shape.c:19: 	shape->center.x = 0;
  19:mini3d/shape.c **** 	shape->center.y = 0;
  52              		.loc 1 19 18 view .LVU5
  53 0006 0022     		movs	r2, #0	@ tmp119,
  54              	@ mini3d/shape.c:23: 	shape->isClosed = 0;
  55              		.loc 1 23 18 view .LVU6
  56 0008 63F30001 		bfi	r1, r3, #0, #1	@ shape_2(D)->isClosed, tmp114,,
  57              	@ mini3d/shape.c:14: 	shape->retainCount = 0;
  14:mini3d/shape.c **** 	shape->nPoints = 0;
  58              		.loc 1 14 21 view .LVU7
  59 000c 0360     		str	r3, [r0]	@ unaligned	@ tmp114, MEM <vector(2) int> [(int *)shape_2(D)]
  60 000e 4360     		str	r3, [r0, #4]	@ unaligned	@ tmp114, MEM <vector(2) int> [(int *)shape_2(D)]
  16:mini3d/shape.c **** 	shape->points = NULL;
  61              		.loc 1 16 2 is_stmt 1 view .LVU8
  62              	@ mini3d/shape.c:16: 	shape->points = NULL;
  16:mini3d/shape.c **** 	shape->points = NULL;
  63              		.loc 1 16 16 is_stmt 0 view .LVU9
  64 0010 8360     		str	r3, [r0, #8]	@ tmp114, shape_2(D)->points
  17:mini3d/shape.c **** 	shape->faces = NULL;
  65              		.loc 1 17 2 is_stmt 1 view .LVU10
  66              	@ mini3d/shape.c:19: 	shape->center.x = 0;
  19:mini3d/shape.c **** 	shape->center.y = 0;
  67              		.loc 1 19 18 is_stmt 0 view .LVU11
  68 0012 4261     		str	r2, [r0, #20]	@ float	@ tmp119, shape_2(D)->center.x
  69              	@ mini3d/shape.c:20: 	shape->center.y = 0;
  20:mini3d/shape.c **** 	shape->center.z = 0;
  70              		.loc 1 20 18 view .LVU12
  71 0014 8261     		str	r2, [r0, #24]	@ float	@ tmp119, shape_2(D)->center.y
  72              	@ mini3d/shape.c:21: 	shape->center.z = 0;
  21:mini3d/shape.c **** 	shape->colorBias = 0;
  73              		.loc 1 21 18 view .LVU13
  74 0016 C261     		str	r2, [r0, #28]	@ float	@ tmp119, shape_2(D)->center.z
  75              	@ mini3d/shape.c:22: 	shape->colorBias = 0;
  22:mini3d/shape.c **** 	shape->isClosed = 0;
  76              		.loc 1 22 19 view .LVU14
  77 0018 0262     		str	r2, [r0, #32]	@ float	@ tmp119, shape_2(D)->colorBias
  78              	@ mini3d/shape.c:23: 	shape->isClosed = 0;
  79              		.loc 1 23 18 view .LVU15
  80 001a 80F82410 		strb	r1, [r0, #36]	@ shape_2(D)->isClosed, shape_2(D)->isClosed
  81              	@ mini3d/shape.c:25: 	shape->orderTableSize = 0;
ARM GAS  /tmp/ccs8Dd2F.s 			page 3


  24:mini3d/shape.c **** #if ENABLE_ORDERING_TABLE
  25:mini3d/shape.c **** 	shape->orderTableSize = 0;
  82              		.loc 1 25 24 view .LVU16
  83 001e 8362     		str	r3, [r0, #40]	@ tmp114, shape_2(D)->orderTableSize
  84              	@ mini3d/shape.c:18: 	shape->faces = NULL;
  18:mini3d/shape.c **** 	shape->center.x = 0;
  85              		.loc 1 18 15 view .LVU17
  86 0020 C0E90333 		strd	r3, r3, [r0, #12]	@ tmp114, tmp114, shape,
  19:mini3d/shape.c **** 	shape->center.y = 0;
  87              		.loc 1 19 2 is_stmt 1 view .LVU18
  20:mini3d/shape.c **** 	shape->center.z = 0;
  88              		.loc 1 20 2 view .LVU19
  21:mini3d/shape.c **** 	shape->colorBias = 0;
  89              		.loc 1 21 2 view .LVU20
  22:mini3d/shape.c **** 	shape->isClosed = 0;
  90              		.loc 1 22 2 view .LVU21
  23:mini3d/shape.c **** #if ENABLE_ORDERING_TABLE
  91              		.loc 1 23 2 view .LVU22
  92              		.loc 1 25 2 view .LVU23
  93              	@ mini3d/shape.c:27: }
  26:mini3d/shape.c **** #endif
  27:mini3d/shape.c **** }
  94              		.loc 1 27 1 is_stmt 0 view .LVU24
  95 0024 7047     		bx	lr	@
  96              		.cfi_endproc
  97              	.LFE12:
  98              		.size	Shape3D_init, .-Shape3D_init
  99 0026 00BF     		.section	.text.Shape3D_retain,"ax",%progbits
 100              		.align	1
 101              		.p2align 4,,15
 102              		.global	Shape3D_retain
 103              		.syntax unified
 104              		.thumb
 105              		.thumb_func
 106              		.type	Shape3D_retain, %function
 107              	Shape3D_retain:
 108              	.LVL1:
 109              	.LFB13:
  28:mini3d/shape.c **** 
  29:mini3d/shape.c **** Shape3D* Shape3D_retain(Shape3D* shape)
  30:mini3d/shape.c **** {
 110              		.loc 1 30 1 is_stmt 1 view -0
 111              		.cfi_startproc
 112              		@ args = 0, pretend = 0, frame = 0
 113              		@ frame_needed = 0, uses_anonymous_args = 0
 114              		@ link register save eliminated.
  31:mini3d/shape.c **** 	++shape->retainCount;
 115              		.loc 1 31 2 view .LVU26
 116 0000 0268     		ldr	r2, [r0]	@ shape_4(D)->retainCount, shape_4(D)->retainCount
 117 0002 0132     		adds	r2, r2, #1	@ tmp117, shape_4(D)->retainCount,
 118 0004 0260     		str	r2, [r0]	@ tmp117, shape_4(D)->retainCount
  32:mini3d/shape.c **** 	return shape;
 119              		.loc 1 32 2 view .LVU27
 120              	@ mini3d/shape.c:33: }
  33:mini3d/shape.c **** }
 121              		.loc 1 33 1 is_stmt 0 view .LVU28
 122 0006 7047     		bx	lr	@
ARM GAS  /tmp/ccs8Dd2F.s 			page 4


 123              		.cfi_endproc
 124              	.LFE13:
 125              		.size	Shape3D_retain, .-Shape3D_retain
 126              		.section	.text.Shape3D_release,"ax",%progbits
 127              		.align	1
 128              		.p2align 4,,15
 129              		.global	Shape3D_release
 130              		.syntax unified
 131              		.thumb
 132              		.thumb_func
 133              		.type	Shape3D_release, %function
 134              	Shape3D_release:
 135              	.LVL2:
 136              	.LFB14:
  34:mini3d/shape.c **** 
  35:mini3d/shape.c **** void Shape3D_release(Shape3D* shape)
  36:mini3d/shape.c **** {
 137              		.loc 1 36 1 is_stmt 1 view -0
 138              		.cfi_startproc
 139              		@ args = 0, pretend = 0, frame = 0
 140              		@ frame_needed = 0, uses_anonymous_args = 0
  37:mini3d/shape.c **** 	if ( --shape->retainCount > 0 )
 141              		.loc 1 37 2 view .LVU30
 142              	@ mini3d/shape.c:37: 	if ( --shape->retainCount > 0 )
 143              		.loc 1 37 7 is_stmt 0 view .LVU31
 144 0000 0368     		ldr	r3, [r0]	@ shape_12(D)->retainCount, shape_12(D)->retainCount
 145 0002 013B     		subs	r3, r3, #1	@ _2, shape_12(D)->retainCount,
 146              	@ mini3d/shape.c:37: 	if ( --shape->retainCount > 0 )
 147              		.loc 1 37 5 view .LVU32
 148 0004 002B     		cmp	r3, #0	@ _2,
 149 0006 0360     		str	r3, [r0]	@ _2, shape_12(D)->retainCount
 150 0008 12DC     		bgt	.L4		@,
  38:mini3d/shape.c **** 		return;
  39:mini3d/shape.c **** 	
  40:mini3d/shape.c **** 	if ( shape->points != NULL )
 151              		.loc 1 40 2 is_stmt 1 view .LVU33
 152              	@ mini3d/shape.c:36: {
  36:mini3d/shape.c **** 	if ( --shape->retainCount > 0 )
 153              		.loc 1 36 1 is_stmt 0 view .LVU34
 154 000a 70B5     		push	{r4, r5, r6, lr}	@
 155              	.LCFI0:
 156              		.cfi_def_cfa_offset 16
 157              		.cfi_offset 4, -16
 158              		.cfi_offset 5, -12
 159              		.cfi_offset 6, -8
 160              		.cfi_offset 14, -4
 161 000c 0446     		mov	r4, r0	@ shape, tmp129
 162              	@ mini3d/shape.c:40: 	if ( shape->points != NULL )
 163              		.loc 1 40 12 view .LVU35
 164 000e 8068     		ldr	r0, [r0, #8]	@ _3, shape_12(D)->points
 165              	.LVL3:
 166              	@ mini3d/shape.c:41: 		m3d_free(shape->points);
  41:mini3d/shape.c **** 		m3d_free(shape->points);
 167              		.loc 1 41 3 view .LVU36
 168 0010 084D     		ldr	r5, .L17	@ tmp128,
 169              	@ mini3d/shape.c:40: 	if ( shape->points != NULL )
  40:mini3d/shape.c **** 		m3d_free(shape->points);
ARM GAS  /tmp/ccs8Dd2F.s 			page 5


 170              		.loc 1 40 5 view .LVU37
 171 0012 10B1     		cbz	r0, .L6	@ _3,
 172              		.loc 1 41 3 is_stmt 1 view .LVU38
 173 0014 0021     		movs	r1, #0	@,
 174 0016 2B68     		ldr	r3, [r5]	@ m3d_realloc, m3d_realloc
 175 0018 9847     		blx	r3		@ m3d_realloc
 176              	.LVL4:
 177              	.L6:
  42:mini3d/shape.c **** 	
  43:mini3d/shape.c **** 	if ( shape->faces != NULL )
 178              		.loc 1 43 2 view .LVU39
 179              	@ mini3d/shape.c:43: 	if ( shape->faces != NULL )
 180              		.loc 1 43 12 is_stmt 0 view .LVU40
 181 001a 2069     		ldr	r0, [r4, #16]	@ _5, shape_12(D)->faces
 182              	@ mini3d/shape.c:43: 	if ( shape->faces != NULL )
 183              		.loc 1 43 5 view .LVU41
 184 001c 10B1     		cbz	r0, .L7	@ _5,
  44:mini3d/shape.c **** 		m3d_free(shape->faces);
 185              		.loc 1 44 3 is_stmt 1 view .LVU42
 186 001e 2B68     		ldr	r3, [r5]	@ m3d_realloc, m3d_realloc
 187 0020 0021     		movs	r1, #0	@,
 188 0022 9847     		blx	r3		@ m3d_realloc
 189              	.LVL5:
 190              	.L7:
  45:mini3d/shape.c **** 	
  46:mini3d/shape.c **** 	m3d_free(shape);
 191              		.loc 1 46 2 view .LVU43
 192 0024 2B68     		ldr	r3, [r5]	@ m3d_realloc, m3d_realloc
 193 0026 2046     		mov	r0, r4	@, shape
 194 0028 0021     		movs	r1, #0	@,
 195              	@ mini3d/shape.c:47: }
  47:mini3d/shape.c **** }
 196              		.loc 1 47 1 is_stmt 0 view .LVU44
 197 002a BDE87040 		pop	{r4, r5, r6, lr}	@
 198              	.LCFI1:
 199              		.cfi_restore 14
 200              		.cfi_restore 6
 201              		.cfi_restore 5
 202              		.cfi_restore 4
 203              		.cfi_def_cfa_offset 0
 204              	.LVL6:
 205              	@ mini3d/shape.c:46: 	m3d_free(shape);
  46:mini3d/shape.c **** }
 206              		.loc 1 46 2 view .LVU45
 207 002e 1847     		bx	r3		@ m3d_realloc
 208              	.LVL7:
 209              	.L4:
  46:mini3d/shape.c **** }
 210              		.loc 1 46 2 view .LVU46
 211 0030 7047     		bx	lr	@
 212              	.L18:
 213 0032 00BF     		.align	2
 214              	.L17:
 215 0034 00000000 		.word	m3d_realloc
 216              		.cfi_endproc
 217              	.LFE14:
 218              		.size	Shape3D_release, .-Shape3D_release
ARM GAS  /tmp/ccs8Dd2F.s 			page 6


 219              		.section	.text.Shape3D_addPoint,"ax",%progbits
 220              		.align	1
 221              		.p2align 4,,15
 222              		.global	Shape3D_addPoint
 223              		.syntax unified
 224              		.thumb
 225              		.thumb_func
 226              		.type	Shape3D_addPoint, %function
 227              	Shape3D_addPoint:
 228              	.LVL8:
 229              	.LFB15:
  48:mini3d/shape.c **** 
  49:mini3d/shape.c **** int Shape3D_addPoint(Shape3D* shape, Point3D* p)
  50:mini3d/shape.c **** {
 230              		.loc 1 50 1 is_stmt 1 view -0
 231              		.cfi_startproc
 232              		@ args = 0, pretend = 0, frame = 0
 233              		@ frame_needed = 0, uses_anonymous_args = 0
  51:mini3d/shape.c **** 	int i;
 234              		.loc 1 51 2 view .LVU48
  52:mini3d/shape.c **** 	
  53:mini3d/shape.c **** 	for ( i = 0; i < shape->nPoints; ++i )
 235              		.loc 1 53 2 view .LVU49
 236              		.loc 1 53 17 view .LVU50
 237              	@ mini3d/shape.c:50: {
  50:mini3d/shape.c **** 	int i;
 238              		.loc 1 50 1 is_stmt 0 view .LVU51
 239 0000 F8B5     		push	{r3, r4, r5, r6, r7, lr}	@
 240              	.LCFI2:
 241              		.cfi_def_cfa_offset 24
 242              		.cfi_offset 3, -24
 243              		.cfi_offset 4, -20
 244              		.cfi_offset 5, -16
 245              		.cfi_offset 6, -12
 246              		.cfi_offset 7, -8
 247              		.cfi_offset 14, -4
 248              	@ mini3d/shape.c:50: {
  50:mini3d/shape.c **** 	int i;
 249              		.loc 1 50 1 view .LVU52
 250 0002 0746     		mov	r7, r0	@ shape, tmp170
 251 0004 0E46     		mov	r6, r1	@ p, tmp171
 252              	@ mini3d/shape.c:59: 	shape->points = m3d_realloc(shape->points, (shape->nPoints + 1) * sizeof(Poin
  54:mini3d/shape.c **** 	{
  55:mini3d/shape.c **** 		if ( Point3D_equals(*p, shape->points[i]) )
  56:mini3d/shape.c **** 			return i;
  57:mini3d/shape.c **** 	}
  58:mini3d/shape.c **** 	
  59:mini3d/shape.c **** 	shape->points = m3d_realloc(shape->points, (shape->nPoints + 1) * sizeof(Point3D));
 253              		.loc 1 59 35 view .LVU53
 254 0006 D0E90150 		ldrd	r5, r0, [r0, #4]	@ _48, pretmp_64, shape,
 255              	.LVL9:
 256              	@ mini3d/shape.c:53: 	for ( i = 0; i < shape->nPoints; ++i )
  53:mini3d/shape.c **** 	{
 257              		.loc 1 53 17 view .LVU54
 258 000a 002D     		cmp	r5, #0	@ _48,
 259 000c 2ADD     		ble	.L20		@,
 260 000e 91ED006A 		vldr.32	s12, [r1]	@ a$x, p_27(D)->x
ARM GAS  /tmp/ccs8Dd2F.s 			page 7


 261 0012 0346     		mov	r3, r0	@ ivtmp.38, pretmp_64
 262 0014 D1ED016A 		vldr.32	s13, [r1, #4]	@ a$y, p_27(D)->y
 263              	@ mini3d/shape.c:53: 	for ( i = 0; i < shape->nPoints; ++i )
  53:mini3d/shape.c **** 	{
 264              		.loc 1 53 10 view .LVU55
 265 0018 0024     		movs	r4, #0	@ <retval>,
 266 001a D1ED025A 		vldr.32	s11, [r1, #8]	@ a$z, p_27(D)->z
 267 001e 03E0     		b	.L23		@
 268              	.LVL10:
 269              	.L24:
 270              	@ mini3d/shape.c:53: 	for ( i = 0; i < shape->nPoints; ++i )
  53:mini3d/shape.c **** 	{
 271              		.loc 1 53 35 view .LVU56
 272 0020 0134     		adds	r4, r4, #1	@ <retval>, <retval>,
 273              	.LVL11:
  53:mini3d/shape.c **** 	{
 274              		.loc 1 53 17 is_stmt 1 view .LVU57
 275 0022 0C33     		adds	r3, r3, #12	@ ivtmp.38, ivtmp.38,
 276 0024 AC42     		cmp	r4, r5	@ <retval>, _48
 277 0026 1DD0     		beq	.L20		@,
 278              	.LVL12:
 279              	.L23:
  55:mini3d/shape.c **** 			return i;
 280              		.loc 1 55 3 view .LVU58
 281              	.LBB4:
 282              	.LBI4:
 283              		.file 2 "mini3d/3dmath.h"
   1:mini3d/3dmath.h **** //
   2:mini3d/3dmath.h **** //  pd3d.h
   3:mini3d/3dmath.h **** //  Playdate Simulator
   4:mini3d/3dmath.h **** //
   5:mini3d/3dmath.h **** //  Created by Dave Hayden on 8/25/15.
   6:mini3d/3dmath.h **** //  Copyright (c) 2015 Panic, Inc. All rights reserved.
   7:mini3d/3dmath.h **** //
   8:mini3d/3dmath.h **** 
   9:mini3d/3dmath.h **** #ifndef __Playdate_Simulator__pd3d__
  10:mini3d/3dmath.h **** #define __Playdate_Simulator__pd3d__
  11:mini3d/3dmath.h **** 
  12:mini3d/3dmath.h **** #include <stdio.h>
  13:mini3d/3dmath.h **** #include <stdint.h>
  14:mini3d/3dmath.h **** #include <math.h>
  15:mini3d/3dmath.h **** 
  16:mini3d/3dmath.h **** #if TARGET_PLAYDATE
  17:mini3d/3dmath.h **** static inline float _lib3d_sqrtf(float x)
  18:mini3d/3dmath.h **** {
  19:mini3d/3dmath.h **** 	float result;
  20:mini3d/3dmath.h **** 	asm ("vsqrt.f32 %0, %1" : "=t"(result) : "t"(x));
  21:mini3d/3dmath.h **** 	return result;
  22:mini3d/3dmath.h **** }
  23:mini3d/3dmath.h **** #define sqrtf(f) _lib3d_sqrtf(f)
  24:mini3d/3dmath.h **** #endif
  25:mini3d/3dmath.h **** 
  26:mini3d/3dmath.h **** typedef struct
  27:mini3d/3dmath.h **** {
  28:mini3d/3dmath.h **** 	float x;
  29:mini3d/3dmath.h **** 	float y;
  30:mini3d/3dmath.h **** 	float z;
ARM GAS  /tmp/ccs8Dd2F.s 			page 8


  31:mini3d/3dmath.h **** } Point3D;
  32:mini3d/3dmath.h **** 
  33:mini3d/3dmath.h **** static inline Point3D Point3DMake(float x, float y, float z)
  34:mini3d/3dmath.h **** {
  35:mini3d/3dmath.h **** 	return (Point3D){ .x = x, .y = y, .z = z };
  36:mini3d/3dmath.h **** }
  37:mini3d/3dmath.h **** 
  38:mini3d/3dmath.h **** static inline int Point3D_equals(Point3D a, Point3D b)
 284              		.loc 2 38 19 view .LVU59
 285              	.LBB5:
  39:mini3d/3dmath.h **** {
  40:mini3d/3dmath.h **** 	return (a.x == b.x) && (a.y == b.y) && (a.z == b.z);
 286              		.loc 2 40 2 view .LVU60
 287              		.loc 2 40 2 is_stmt 0 view .LVU61
 288              	.LBE5:
 289              	.LBE4:
  53:mini3d/shape.c **** 	{
 290              		.loc 1 53 35 is_stmt 1 view .LVU62
 291              	.LBB7:
 292              	.LBB6:
 293              	@ mini3d/3dmath.h:40: 	return (a.x == b.x) && (a.y == b.y) && (a.z == b.z);
 294              		.loc 2 40 38 is_stmt 0 view .LVU63
 295 0028 93ED007A 		vldr.32	s14, [r3]	@ MEM[(float *)_55], MEM[(float *)_55]
 296              	@ mini3d/3dmath.h:40: 	return (a.x == b.x) && (a.y == b.y) && (a.z == b.z);
 297              		.loc 2 40 22 view .LVU64
 298 002c D3ED017A 		vldr.32	s15, [r3, #4]	@ MEM[(float *)_55 + 4B], MEM[(float *)_55 + 4B]
 299              	@ mini3d/3dmath.h:40: 	return (a.x == b.x) && (a.y == b.y) && (a.z == b.z);
 300              		.loc 2 40 38 view .LVU65
 301 0030 B4EE467A 		vcmp.f32	s14, s12	@ MEM[(float *)_55], a$x
 302 0034 F1EE10FA 		vmrs	APSR_nzcv, FPSCR
 303              	@ mini3d/3dmath.h:40: 	return (a.x == b.x) && (a.y == b.y) && (a.z == b.z);
 304              		.loc 2 40 22 view .LVU66
 305 0038 F4EE667A 		vcmp.f32	s15, s13	@ MEM[(float *)_55 + 4B], a$y
 306              	@ mini3d/3dmath.h:40: 	return (a.x == b.x) && (a.y == b.y) && (a.z == b.z);
 307              		.loc 2 40 38 view .LVU67
 308 003c 0CBF     		ite	eq
 309 003e 0122     		moveq	r2, #1	@ tmp142,
 310 0040 0022     		movne	r2, #0	@ tmp142,
 311              	@ mini3d/3dmath.h:40: 	return (a.x == b.x) && (a.y == b.y) && (a.z == b.z);
 312              		.loc 2 40 22 view .LVU68
 313 0042 F1EE10FA 		vmrs	APSR_nzcv, FPSCR
 314              	@ mini3d/3dmath.h:40: 	return (a.x == b.x) && (a.y == b.y) && (a.z == b.z);
 315              		.loc 2 40 38 view .LVU69
 316 0046 02F00102 		and	r2, r2, #1	@ tmp148, tmp142,
 317 004a 18BF     		it	ne
 318 004c 0022     		movne	r2, #0	@ tmp148,
 319 004e 002A     		cmp	r2, #0	@ tmp148
 320 0050 E6D0     		beq	.L24	@
 321 0052 D3ED027A 		vldr.32	s15, [r3, #8]	@ MEM[(float *)_55 + 8B], MEM[(float *)_55 + 8B]
 322 0056 F4EE657A 		vcmp.f32	s15, s11	@ MEM[(float *)_55 + 8B], a$z
 323 005a F1EE10FA 		vmrs	APSR_nzcv, FPSCR
 324 005e DFD1     		bne	.L24		@,
 325              	.LBE6:
 326              	.LBE7:
 327              	@ mini3d/shape.c:65: }
  60:mini3d/shape.c **** 	
  61:mini3d/shape.c **** 	Point3D* point = &shape->points[shape->nPoints];
ARM GAS  /tmp/ccs8Dd2F.s 			page 9


  62:mini3d/shape.c **** 	*point = *p;
  63:mini3d/shape.c **** 	
  64:mini3d/shape.c **** 	return shape->nPoints++;
  65:mini3d/shape.c **** }
 328              		.loc 1 65 1 view .LVU70
 329 0060 2046     		mov	r0, r4	@, <retval>
 330 0062 F8BD     		pop	{r3, r4, r5, r6, r7, pc}	@
 331              	.LVL13:
 332              	.L20:
  59:mini3d/shape.c **** 	
 333              		.loc 1 59 2 is_stmt 1 view .LVU71
 334              	@ mini3d/shape.c:59: 	shape->points = m3d_realloc(shape->points, (shape->nPoints + 1) * sizeof(Poin
  59:mini3d/shape.c **** 	
 335              		.loc 1 59 61 is_stmt 0 view .LVU72
 336 0064 0135     		adds	r5, r5, #1	@ tmp153, _48,
 337              	@ mini3d/shape.c:59: 	shape->points = m3d_realloc(shape->points, (shape->nPoints + 1) * sizeof(Poin
  59:mini3d/shape.c **** 	
 338              		.loc 1 59 18 view .LVU73
 339 0066 0A4B     		ldr	r3, .L30	@ tmp158,
 340 0068 05EB4505 		add	r5, r5, r5, lsl #1	@ tmp156, tmp153, tmp153,
 341 006c 1B68     		ldr	r3, [r3]	@ m3d_realloc, m3d_realloc
 342 006e A900     		lsls	r1, r5, #2	@, tmp156,
 343              	.LVL14:
  59:mini3d/shape.c **** 	
 344              		.loc 1 59 18 view .LVU74
 345 0070 9847     		blx	r3		@ m3d_realloc
 346              	.LVL15:
 347              	@ mini3d/shape.c:61: 	Point3D* point = &shape->points[shape->nPoints];
  61:mini3d/shape.c **** 	*point = *p;
 348              		.loc 1 61 39 view .LVU75
 349 0072 7C68     		ldr	r4, [r7, #4]	@ <retval>, shape_23(D)->nPoints
 350              	@ mini3d/shape.c:59: 	shape->points = m3d_realloc(shape->points, (shape->nPoints + 1) * sizeof(Poin
  59:mini3d/shape.c **** 	
 351              		.loc 1 59 16 view .LVU76
 352 0074 B860     		str	r0, [r7, #8]	@ _12, shape_23(D)->points
  61:mini3d/shape.c **** 	*point = *p;
 353              		.loc 1 61 2 is_stmt 1 view .LVU77
 354              	.LVL16:
  62:mini3d/shape.c **** 	
 355              		.loc 1 62 2 view .LVU78
 356              	@ mini3d/shape.c:62: 	*point = *p;
  62:mini3d/shape.c **** 	
 357              		.loc 1 62 9 is_stmt 0 view .LVU79
 358 0076 04EB4403 		add	r3, r4, r4, lsl #1	@ tmp162, <retval>, <retval>,
 359 007a 00EB8303 		add	r3, r0, r3, lsl #2	@ tmp164, _12, tmp162,
 360 007e 96E80700 		ldm	r6, {r0, r1, r2}	@ p,,,
 361              	.LVL17:
  62:mini3d/shape.c **** 	
 362              		.loc 1 62 9 view .LVU80
 363 0082 83E80700 		stm	r3, {r0, r1, r2}	@ tmp164,,,
  64:mini3d/shape.c **** }
 364              		.loc 1 64 2 is_stmt 1 view .LVU81
 365              	@ mini3d/shape.c:64: 	return shape->nPoints++;
  64:mini3d/shape.c **** }
 366              		.loc 1 64 23 is_stmt 0 view .LVU82
 367 0086 631C     		adds	r3, r4, #1	@ tmp167, <retval>,
 368              	@ mini3d/shape.c:65: }
ARM GAS  /tmp/ccs8Dd2F.s 			page 10


 369              		.loc 1 65 1 view .LVU83
 370 0088 2046     		mov	r0, r4	@, <retval>
 371              	@ mini3d/shape.c:64: 	return shape->nPoints++;
  64:mini3d/shape.c **** }
 372              		.loc 1 64 23 view .LVU84
 373 008a 7B60     		str	r3, [r7, #4]	@ tmp167, shape_23(D)->nPoints
 374              	@ mini3d/shape.c:65: }
 375              		.loc 1 65 1 view .LVU85
 376 008c F8BD     		pop	{r3, r4, r5, r6, r7, pc}	@
 377              	.LVL18:
 378              	.L31:
 379              		.loc 1 65 1 view .LVU86
 380 008e 00BF     		.align	2
 381              	.L30:
 382 0090 00000000 		.word	m3d_realloc
 383              		.cfi_endproc
 384              	.LFE15:
 385              		.size	Shape3D_addPoint, .-Shape3D_addPoint
 386              		.section	.text.Shape3D_addFace,"ax",%progbits
 387              		.align	1
 388              		.p2align 4,,15
 389              		.global	Shape3D_addFace
 390              		.syntax unified
 391              		.thumb
 392              		.thumb_func
 393              		.type	Shape3D_addFace, %function
 394              	Shape3D_addFace:
 395              	.LVL19:
 396              	.LFB16:
  66:mini3d/shape.c **** 
  67:mini3d/shape.c **** void Shape3D_addFace(Shape3D* shape, Point3D* a, Point3D* b, Point3D* c, Point3D* d, float colorBia
  68:mini3d/shape.c **** {
 397              		.loc 1 68 1 is_stmt 1 view -0
 398              		.cfi_startproc
 399              		@ args = 4, pretend = 0, frame = 0
 400              		@ frame_needed = 0, uses_anonymous_args = 0
  69:mini3d/shape.c **** 	shape->faces = m3d_realloc(shape->faces, (shape->nFaces + 1) * sizeof(Face3D));
 401              		.loc 1 69 2 view .LVU88
 402              	@ mini3d/shape.c:68: {
  68:mini3d/shape.c **** 	shape->faces = m3d_realloc(shape->faces, (shape->nFaces + 1) * sizeof(Face3D));
 403              		.loc 1 68 1 is_stmt 0 view .LVU89
 404 0000 2DE9F84F 		push	{r3, r4, r5, r6, r7, r8, r9, r10, fp, lr}	@
 405              	.LCFI3:
 406              		.cfi_def_cfa_offset 40
 407              		.cfi_offset 3, -40
 408              		.cfi_offset 4, -36
 409              		.cfi_offset 5, -32
 410              		.cfi_offset 6, -28
 411              		.cfi_offset 7, -24
 412              		.cfi_offset 8, -20
 413              		.cfi_offset 9, -16
 414              		.cfi_offset 10, -12
 415              		.cfi_offset 11, -8
 416              		.cfi_offset 14, -4
 417 0004 8846     		mov	r8, r1	@ a, tmp290
 418              	@ mini3d/shape.c:69: 	shape->faces = m3d_realloc(shape->faces, (shape->nFaces + 1) * sizeof(Face3D)
 419              		.loc 1 69 58 view .LVU90
ARM GAS  /tmp/ccs8Dd2F.s 			page 11


 420 0006 C168     		ldr	r1, [r0, #12]	@ shape_86(D)->nFaces, shape_86(D)->nFaces
 421              	.LVL20:
 422              	@ mini3d/shape.c:68: {
  68:mini3d/shape.c **** 	shape->faces = m3d_realloc(shape->faces, (shape->nFaces + 1) * sizeof(Face3D));
 423              		.loc 1 68 1 view .LVU91
 424 0008 1E46     		mov	r6, r3	@ c, tmp292
 425              	@ mini3d/shape.c:69: 	shape->faces = m3d_realloc(shape->faces, (shape->nFaces + 1) * sizeof(Face3D)
 426              		.loc 1 69 17 view .LVU92
 427 000a 6D4B     		ldr	r3, .L36	@ tmp210,
 428              	.LVL21:
 429              	@ mini3d/shape.c:69: 	shape->faces = m3d_realloc(shape->faces, (shape->nFaces + 1) * sizeof(Face3D)
 430              		.loc 1 69 58 view .LVU93
 431 000c 0131     		adds	r1, r1, #1	@ tmp203, shape_86(D)->nFaces,
 432              	@ mini3d/shape.c:68: {
  68:mini3d/shape.c **** 	shape->faces = m3d_realloc(shape->faces, (shape->nFaces + 1) * sizeof(Face3D));
 433              		.loc 1 68 1 view .LVU94
 434 000e 0446     		mov	r4, r0	@ shape, tmp289
 435              	@ mini3d/shape.c:69: 	shape->faces = m3d_realloc(shape->faces, (shape->nFaces + 1) * sizeof(Face3D)
 436              		.loc 1 69 17 view .LVU95
 437 0010 1B68     		ldr	r3, [r3]	@ m3d_realloc, m3d_realloc
 438              	@ mini3d/shape.c:68: {
  68:mini3d/shape.c **** 	shape->faces = m3d_realloc(shape->faces, (shape->nFaces + 1) * sizeof(Face3D));
 439              		.loc 1 68 1 view .LVU96
 440 0012 1746     		mov	r7, r2	@ b, tmp291
 441              	@ mini3d/shape.c:69: 	shape->faces = m3d_realloc(shape->faces, (shape->nFaces + 1) * sizeof(Face3D)
 442              		.loc 1 69 17 view .LVU97
 443 0014 01EB4101 		add	r1, r1, r1, lsl #1	@ tmp207, tmp203, tmp203,
 444 0018 0069     		ldr	r0, [r0, #16]	@, shape_86(D)->faces
 445              	.LVL22:
 446              	@ mini3d/shape.c:68: {
  68:mini3d/shape.c **** 	shape->faces = m3d_realloc(shape->faces, (shape->nFaces + 1) * sizeof(Face3D));
 447              		.loc 1 68 1 view .LVU98
 448 001a 2DED028B 		vpush.64	{d8}	@
 449              	.LCFI4:
 450              		.cfi_def_cfa_offset 48
 451              		.cfi_offset 80, -48
 452              		.cfi_offset 81, -44
 453              	@ mini3d/shape.c:69: 	shape->faces = m3d_realloc(shape->faces, (shape->nFaces + 1) * sizeof(Face3D)
 454              		.loc 1 69 17 view .LVU99
 455 001e 8900     		lsls	r1, r1, #2	@, tmp207,
 456              	@ mini3d/shape.c:68: {
  68:mini3d/shape.c **** 	shape->faces = m3d_realloc(shape->faces, (shape->nFaces + 1) * sizeof(Face3D));
 457              		.loc 1 68 1 view .LVU100
 458 0020 B0EE408A 		vmov.f32	s16, s0	@ colorBias, tmp293
 459 0024 DDF83090 		ldr	r9, [sp, #48]	@ d, d
 460              	@ mini3d/shape.c:69: 	shape->faces = m3d_realloc(shape->faces, (shape->nFaces + 1) * sizeof(Face3D)
 461              		.loc 1 69 17 view .LVU101
 462 0028 9847     		blx	r3		@ m3d_realloc
 463              	.LVL23:
 464              	@ mini3d/shape.c:71: 	Face3D* face = &shape->faces[shape->nFaces];
  70:mini3d/shape.c **** 	
  71:mini3d/shape.c **** 	Face3D* face = &shape->faces[shape->nFaces];
 465              		.loc 1 71 30 view .LVU102
 466 002a E568     		ldr	r5, [r4, #12]	@ shape_86(D)->nFaces, shape_86(D)->nFaces
 467              	@ mini3d/shape.c:69: 	shape->faces = m3d_realloc(shape->faces, (shape->nFaces + 1) * sizeof(Face3D)
  69:mini3d/shape.c **** 	
 468              		.loc 1 69 17 view .LVU103
ARM GAS  /tmp/ccs8Dd2F.s 			page 12


 469 002c 8346     		mov	fp, r0	@ _7, tmp294
 470              	@ mini3d/shape.c:72: 	face->p1 = Shape3D_addPoint(shape, a);
  72:mini3d/shape.c **** 	face->p1 = Shape3D_addPoint(shape, a);
 471              		.loc 1 72 13 view .LVU104
 472 002e 4146     		mov	r1, r8	@, a
 473              	@ mini3d/shape.c:69: 	shape->faces = m3d_realloc(shape->faces, (shape->nFaces + 1) * sizeof(Face3D)
  69:mini3d/shape.c **** 	
 474              		.loc 1 69 15 view .LVU105
 475 0030 2061     		str	r0, [r4, #16]	@ _7, shape_86(D)->faces
  71:mini3d/shape.c **** 	face->p1 = Shape3D_addPoint(shape, a);
 476              		.loc 1 71 2 is_stmt 1 view .LVU106
 477              	@ mini3d/shape.c:71: 	Face3D* face = &shape->faces[shape->nFaces];
  71:mini3d/shape.c **** 	face->p1 = Shape3D_addPoint(shape, a);
 478              		.loc 1 71 30 is_stmt 0 view .LVU107
 479 0032 05EB450C 		add	ip, r5, r5, lsl #1	@ tmp215, shape_86(D)->nFaces, shape_86(D)->nFaces,
 480              	@ mini3d/shape.c:72: 	face->p1 = Shape3D_addPoint(shape, a);
 481              		.loc 1 72 13 view .LVU108
 482 0036 2046     		mov	r0, r4	@, shape
 483              	@ mini3d/shape.c:71: 	Face3D* face = &shape->faces[shape->nFaces];
  71:mini3d/shape.c **** 	face->p1 = Shape3D_addPoint(shape, a);
 484              		.loc 1 71 30 view .LVU109
 485 0038 4FEA8C05 		lsl	r5, ip, #2	@ tmp216, tmp215,
 486              	@ mini3d/shape.c:71: 	Face3D* face = &shape->faces[shape->nFaces];
  71:mini3d/shape.c **** 	face->p1 = Shape3D_addPoint(shape, a);
 487              		.loc 1 71 10 view .LVU110
 488 003c 0BEB8C0A 		add	r10, fp, ip, lsl #2	@ face, _7, tmp215,
 489              	.LVL24:
 490              		.loc 1 72 2 is_stmt 1 view .LVU111
 491              	@ mini3d/shape.c:72: 	face->p1 = Shape3D_addPoint(shape, a);
 492              		.loc 1 72 13 is_stmt 0 view .LVU112
 493 0040 FFF7FEFF 		bl	Shape3D_addPoint		@
 494              	.LVL25:
 495              	@ mini3d/shape.c:73: 	face->p2 = Shape3D_addPoint(shape, b);
  73:mini3d/shape.c **** 	face->p2 = Shape3D_addPoint(shape, b);
 496              		.loc 1 73 13 view .LVU113
 497 0044 3946     		mov	r1, r7	@, b
 498              	@ mini3d/shape.c:72: 	face->p1 = Shape3D_addPoint(shape, a);
  72:mini3d/shape.c **** 	face->p1 = Shape3D_addPoint(shape, a);
 499              		.loc 1 72 11 view .LVU114
 500 0046 2BF80500 		strh	r0, [fp, r5]	@ movhi	@ tmp295, face_89->p1
 501              		.loc 1 73 2 is_stmt 1 view .LVU115
 502              	@ mini3d/shape.c:73: 	face->p2 = Shape3D_addPoint(shape, b);
 503              		.loc 1 73 13 is_stmt 0 view .LVU116
 504 004a 2046     		mov	r0, r4	@, shape
 505 004c FFF7FEFF 		bl	Shape3D_addPoint		@
 506              	.LVL26:
 507              	@ mini3d/shape.c:74: 	face->p3 = Shape3D_addPoint(shape, c);
  74:mini3d/shape.c **** 	face->p3 = Shape3D_addPoint(shape, c);
 508              		.loc 1 74 13 view .LVU117
 509 0050 3146     		mov	r1, r6	@, c
 510              	@ mini3d/shape.c:73: 	face->p2 = Shape3D_addPoint(shape, b);
  73:mini3d/shape.c **** 	face->p2 = Shape3D_addPoint(shape, b);
 511              		.loc 1 73 11 view .LVU118
 512 0052 AAF80200 		strh	r0, [r10, #2]	@ movhi	@ tmp296, face_89->p2
 513              		.loc 1 74 2 is_stmt 1 view .LVU119
 514              	@ mini3d/shape.c:74: 	face->p3 = Shape3D_addPoint(shape, c);
 515              		.loc 1 74 13 is_stmt 0 view .LVU120
ARM GAS  /tmp/ccs8Dd2F.s 			page 13


 516 0056 2046     		mov	r0, r4	@, shape
 517 0058 FFF7FEFF 		bl	Shape3D_addPoint		@
 518              	.LVL27:
 519              	@ mini3d/shape.c:74: 	face->p3 = Shape3D_addPoint(shape, c);
 520              		.loc 1 74 11 view .LVU121
 521 005c AAF80400 		strh	r0, [r10, #4]	@ movhi	@ tmp297, face_89->p3
  75:mini3d/shape.c **** 	face->p4 = (d != NULL) ? Shape3D_addPoint(shape, d) : 0xffff;
 522              		.loc 1 75 2 is_stmt 1 view .LVU122
 523              	@ mini3d/shape.c:75: 	face->p4 = (d != NULL) ? Shape3D_addPoint(shape, d) : 0xffff;
 524              		.loc 1 75 11 is_stmt 0 view .LVU123
 525 0060 B9F1000F 		cmp	r9, #0	@ d
 526 0064 5CD0     		beq	.L33	@
 527              	@ mini3d/shape.c:75: 	face->p4 = (d != NULL) ? Shape3D_addPoint(shape, d) : 0xffff;
 528              		.loc 1 75 27 discriminator 1 view .LVU124
 529 0066 4946     		mov	r1, r9	@, d
 530 0068 2046     		mov	r0, r4	@, shape
 531 006a FFF7FEFF 		bl	Shape3D_addPoint		@
 532              	.LVL28:
 533              	@ mini3d/shape.c:82: 		shape->center.x += (a->x + b->x + c->x + d->x) / 4 / shape->nFaces;
  76:mini3d/shape.c **** 	face->colorBias = colorBias;
  77:mini3d/shape.c **** 	
  78:mini3d/shape.c **** 	++shape->nFaces;
  79:mini3d/shape.c **** 	
  80:mini3d/shape.c **** 	if ( d != NULL )
  81:mini3d/shape.c **** 	{
  82:mini3d/shape.c **** 		shape->center.x += (a->x + b->x + c->x + d->x) / 4 / shape->nFaces;
 534              		.loc 1 82 28 discriminator 1 view .LVU125
 535 006e 97ED006A 		vldr.32	s12, [r7]	@ b_93(D)->x, b_93(D)->x
 536              	@ mini3d/shape.c:83: 		shape->center.y += (a->y + b->y + c->y + d->y) / 4 / shape->nFaces;
  83:mini3d/shape.c **** 		shape->center.y += (a->y + b->y + c->y + d->y) / 4 / shape->nFaces;
 537              		.loc 1 83 28 discriminator 1 view .LVU126
 538 0072 D7ED017A 		vldr.32	s15, [r7, #4]	@ b_93(D)->y, b_93(D)->y
 539              	@ mini3d/shape.c:82: 		shape->center.x += (a->x + b->x + c->x + d->x) / 4 / shape->nFaces;
  82:mini3d/shape.c **** 		shape->center.y += (a->y + b->y + c->y + d->y) / 4 / shape->nFaces;
 540              		.loc 1 82 28 discriminator 1 view .LVU127
 541 0076 D8ED006A 		vldr.32	s13, [r8]	@ a_90(D)->x, a_90(D)->x
 542              	@ mini3d/shape.c:83: 		shape->center.y += (a->y + b->y + c->y + d->y) / 4 / shape->nFaces;
 543              		.loc 1 83 28 discriminator 1 view .LVU128
 544 007a 98ED017A 		vldr.32	s14, [r8, #4]	@ a_90(D)->y, a_90(D)->y
 545              	@ mini3d/shape.c:82: 		shape->center.x += (a->x + b->x + c->x + d->x) / 4 / shape->nFaces;
  82:mini3d/shape.c **** 		shape->center.y += (a->y + b->y + c->y + d->y) / 4 / shape->nFaces;
 546              		.loc 1 82 28 discriminator 1 view .LVU129
 547 007e 76EE866A 		vadd.f32	s13, s13, s12	@ tmp222, a_90(D)->x, b_93(D)->x
 548              	@ mini3d/shape.c:84: 		shape->center.z += (a->z + b->z + c->z + d->z) / 4 / shape->nFaces;
  84:mini3d/shape.c **** 		shape->center.z += (a->z + b->z + c->z + d->z) / 4 / shape->nFaces;
 549              		.loc 1 84 28 discriminator 1 view .LVU130
 550 0082 97ED026A 		vldr.32	s12, [r7, #8]	@ b_93(D)->z, b_93(D)->z
 551              	@ mini3d/shape.c:83: 		shape->center.y += (a->y + b->y + c->y + d->y) / 4 / shape->nFaces;
  83:mini3d/shape.c **** 		shape->center.y += (a->y + b->y + c->y + d->y) / 4 / shape->nFaces;
 552              		.loc 1 83 28 discriminator 1 view .LVU131
 553 0086 37EE277A 		vadd.f32	s14, s14, s15	@ tmp234, a_90(D)->y, b_93(D)->y
 554              	@ mini3d/shape.c:84: 		shape->center.z += (a->z + b->z + c->z + d->z) / 4 / shape->nFaces;
 555              		.loc 1 84 28 discriminator 1 view .LVU132
 556 008a D8ED027A 		vldr.32	s15, [r8, #8]	@ a_90(D)->z, a_90(D)->z
 557              	@ mini3d/shape.c:82: 		shape->center.x += (a->x + b->x + c->x + d->x) / 4 / shape->nFaces;
  82:mini3d/shape.c **** 		shape->center.y += (a->y + b->y + c->y + d->y) / 4 / shape->nFaces;
 558              		.loc 1 82 35 discriminator 1 view .LVU133
ARM GAS  /tmp/ccs8Dd2F.s 			page 14


 559 008e 96ED005A 		vldr.32	s10, [r6]	@ c_96(D)->x, c_96(D)->x
 560              	@ mini3d/shape.c:84: 		shape->center.z += (a->z + b->z + c->z + d->z) / 4 / shape->nFaces;
 561              		.loc 1 84 28 discriminator 1 view .LVU134
 562 0092 77EE867A 		vadd.f32	s15, s15, s12	@ tmp246, a_90(D)->z, b_93(D)->z
 563              	@ mini3d/shape.c:83: 		shape->center.y += (a->y + b->y + c->y + d->y) / 4 / shape->nFaces;
  83:mini3d/shape.c **** 		shape->center.y += (a->y + b->y + c->y + d->y) / 4 / shape->nFaces;
 564              		.loc 1 83 35 discriminator 1 view .LVU135
 565 0096 D6ED015A 		vldr.32	s11, [r6, #4]	@ c_96(D)->y, c_96(D)->y
 566              	@ mini3d/shape.c:84: 		shape->center.z += (a->z + b->z + c->z + d->z) / 4 / shape->nFaces;
 567              		.loc 1 84 35 discriminator 1 view .LVU136
 568 009a 96ED026A 		vldr.32	s12, [r6, #8]	@ c_96(D)->z, c_96(D)->z
 569              	@ mini3d/shape.c:82: 		shape->center.x += (a->x + b->x + c->x + d->x) / 4 / shape->nFaces;
  82:mini3d/shape.c **** 		shape->center.y += (a->y + b->y + c->y + d->y) / 4 / shape->nFaces;
 570              		.loc 1 82 35 discriminator 1 view .LVU137
 571 009e 76EE856A 		vadd.f32	s13, s13, s10	@ tmp225, tmp222, c_96(D)->x
 572              	@ mini3d/shape.c:82: 		shape->center.x += (a->x + b->x + c->x + d->x) / 4 / shape->nFaces;
  82:mini3d/shape.c **** 		shape->center.y += (a->y + b->y + c->y + d->y) / 4 / shape->nFaces;
 573              		.loc 1 82 42 discriminator 1 view .LVU138
 574 00a2 D9ED004A 		vldr.32	s9, [r9]	@ d_99(D)->x, d_99(D)->x
 575              	@ mini3d/shape.c:83: 		shape->center.y += (a->y + b->y + c->y + d->y) / 4 / shape->nFaces;
  83:mini3d/shape.c **** 		shape->center.y += (a->y + b->y + c->y + d->y) / 4 / shape->nFaces;
 576              		.loc 1 83 35 discriminator 1 view .LVU139
 577 00a6 37EE257A 		vadd.f32	s14, s14, s11	@ tmp237, tmp234, c_96(D)->y
 578              	@ mini3d/shape.c:84: 		shape->center.z += (a->z + b->z + c->z + d->z) / 4 / shape->nFaces;
 579              		.loc 1 84 35 discriminator 1 view .LVU140
 580 00aa 77EE867A 		vadd.f32	s15, s15, s12	@ tmp249, tmp246, c_96(D)->z
 581              	@ mini3d/shape.c:83: 		shape->center.y += (a->y + b->y + c->y + d->y) / 4 / shape->nFaces;
  83:mini3d/shape.c **** 		shape->center.y += (a->y + b->y + c->y + d->y) / 4 / shape->nFaces;
 582              		.loc 1 83 42 discriminator 1 view .LVU141
 583 00ae D9ED015A 		vldr.32	s11, [r9, #4]	@ d_99(D)->y, d_99(D)->y
 584              	@ mini3d/shape.c:82: 		shape->center.x += (a->x + b->x + c->x + d->x) / 4 / shape->nFaces;
  82:mini3d/shape.c **** 		shape->center.y += (a->y + b->y + c->y + d->y) / 4 / shape->nFaces;
 585              		.loc 1 82 42 discriminator 1 view .LVU142
 586 00b2 76EEA46A 		vadd.f32	s13, s13, s9	@ tmp227, tmp225, d_99(D)->x
 587              	@ mini3d/shape.c:84: 		shape->center.z += (a->z + b->z + c->z + d->z) / 4 / shape->nFaces;
 588              		.loc 1 84 42 discriminator 1 view .LVU143
 589 00b6 D9ED024A 		vldr.32	s9, [r9, #8]	@ d_99(D)->z, d_99(D)->z
 590              	@ mini3d/shape.c:78: 	++shape->nFaces;
  78:mini3d/shape.c **** 	
 591              		.loc 1 78 2 discriminator 1 view .LVU144
 592 00ba E368     		ldr	r3, [r4, #12]	@ shape_86(D)->nFaces, shape_86(D)->nFaces
 593              	@ mini3d/shape.c:82: 		shape->center.x += (a->x + b->x + c->x + d->x) / 4 / shape->nFaces;
  82:mini3d/shape.c **** 		shape->center.y += (a->y + b->y + c->y + d->y) / 4 / shape->nFaces;
 594              		.loc 1 82 50 discriminator 1 view .LVU145
 595 00bc B5EE005A 		vmov.f32	s10, #2.5e-1	@ tmp230,
 596              	@ mini3d/shape.c:83: 		shape->center.y += (a->y + b->y + c->y + d->y) / 4 / shape->nFaces;
  83:mini3d/shape.c **** 		shape->center.z += (a->z + b->z + c->z + d->z) / 4 / shape->nFaces;
 597              		.loc 1 83 42 discriminator 1 view .LVU146
 598 00c0 37EE257A 		vadd.f32	s14, s14, s11	@ tmp239, tmp237, d_99(D)->y
 599              	@ mini3d/shape.c:83: 		shape->center.y += (a->y + b->y + c->y + d->y) / 4 / shape->nFaces;
  83:mini3d/shape.c **** 		shape->center.z += (a->z + b->z + c->z + d->z) / 4 / shape->nFaces;
 600              		.loc 1 83 19 discriminator 1 view .LVU147
 601 00c4 94ED066A 		vldr.32	s12, [r4, #24]	@ shape_86(D)->center.y, shape_86(D)->center.y
 602              	@ mini3d/shape.c:84: 		shape->center.z += (a->z + b->z + c->z + d->z) / 4 / shape->nFaces;
 603              		.loc 1 84 42 discriminator 1 view .LVU148
 604 00c8 77EEA47A 		vadd.f32	s15, s15, s9	@ tmp251, tmp249, d_99(D)->z
 605              	@ mini3d/shape.c:78: 	++shape->nFaces;
ARM GAS  /tmp/ccs8Dd2F.s 			page 15


  78:mini3d/shape.c **** 	
 606              		.loc 1 78 2 discriminator 1 view .LVU149
 607 00cc 0133     		adds	r3, r3, #1	@ _117, shape_86(D)->nFaces,
 608              	@ mini3d/shape.c:82: 		shape->center.x += (a->x + b->x + c->x + d->x) / 4 / shape->nFaces;
  82:mini3d/shape.c **** 		shape->center.y += (a->y + b->y + c->y + d->y) / 4 / shape->nFaces;
 609              		.loc 1 82 50 discriminator 1 view .LVU150
 610 00ce 66EE856A 		vmul.f32	s13, s13, s10	@ tmp229, tmp227, tmp230
 611              	@ mini3d/shape.c:82: 		shape->center.x += (a->x + b->x + c->x + d->x) / 4 / shape->nFaces;
  82:mini3d/shape.c **** 		shape->center.y += (a->y + b->y + c->y + d->y) / 4 / shape->nFaces;
 612              		.loc 1 82 19 discriminator 1 view .LVU151
 613 00d2 D4ED055A 		vldr.32	s11, [r4, #20]	@ shape_86(D)->center.x, shape_86(D)->center.x
 614              	@ mini3d/shape.c:83: 		shape->center.y += (a->y + b->y + c->y + d->y) / 4 / shape->nFaces;
  83:mini3d/shape.c **** 		shape->center.z += (a->z + b->z + c->z + d->z) / 4 / shape->nFaces;
 615              		.loc 1 83 50 discriminator 1 view .LVU152
 616 00d6 27EE057A 		vmul.f32	s14, s14, s10	@ tmp241, tmp239, tmp230
 617              	@ mini3d/shape.c:84: 		shape->center.z += (a->z + b->z + c->z + d->z) / 4 / shape->nFaces;
 618              		.loc 1 84 19 discriminator 1 view .LVU153
 619 00da D4ED074A 		vldr.32	s9, [r4, #28]	@ shape_86(D)->center.z, shape_86(D)->center.z
 620              	@ mini3d/shape.c:84: 		shape->center.z += (a->z + b->z + c->z + d->z) / 4 / shape->nFaces;
 621              		.loc 1 84 50 discriminator 1 view .LVU154
 622 00de 67EE857A 		vmul.f32	s15, s15, s10	@ tmp253, tmp251, tmp230
 623              	@ mini3d/shape.c:82: 		shape->center.x += (a->x + b->x + c->x + d->x) / 4 / shape->nFaces;
  82:mini3d/shape.c **** 		shape->center.y += (a->y + b->y + c->y + d->y) / 4 / shape->nFaces;
 624              		.loc 1 82 54 discriminator 1 view .LVU155
 625 00e2 05EE103A 		vmov	s10, r3	@ int	@ _117, _117
 626              	@ mini3d/shape.c:76: 	face->colorBias = colorBias;
  76:mini3d/shape.c **** 	
 627              		.loc 1 76 18 discriminator 1 view .LVU156
 628 00e6 8AED028A 		vstr.32	s16, [r10, #8]	@ colorBias, face_89->colorBias
 629              	@ mini3d/shape.c:82: 		shape->center.x += (a->x + b->x + c->x + d->x) / 4 / shape->nFaces;
  82:mini3d/shape.c **** 		shape->center.y += (a->y + b->y + c->y + d->y) / 4 / shape->nFaces;
 630              		.loc 1 82 54 discriminator 1 view .LVU157
 631 00ea B8EEC55A 		vcvt.f32.s32	s10, s10	@ _29, _117
 632              	@ mini3d/shape.c:75: 	face->p4 = (d != NULL) ? Shape3D_addPoint(shape, d) : 0xffff;
  75:mini3d/shape.c **** 	face->colorBias = colorBias;
 633              		.loc 1 75 11 discriminator 1 view .LVU158
 634 00ee AAF80600 		strh	r0, [r10, #6]	@ movhi	@ tmp298, face_89->p4
  76:mini3d/shape.c **** 	
 635              		.loc 1 76 2 is_stmt 1 discriminator 1 view .LVU159
  78:mini3d/shape.c **** 	
 636              		.loc 1 78 2 discriminator 1 view .LVU160
 637 00f2 E360     		str	r3, [r4, #12]	@ _117, shape_86(D)->nFaces
  80:mini3d/shape.c **** 	{
 638              		.loc 1 80 2 discriminator 1 view .LVU161
  82:mini3d/shape.c **** 		shape->center.y += (a->y + b->y + c->y + d->y) / 4 / shape->nFaces;
 639              		.loc 1 82 3 discriminator 1 view .LVU162
 640              	@ mini3d/shape.c:82: 		shape->center.x += (a->x + b->x + c->x + d->x) / 4 / shape->nFaces;
  82:mini3d/shape.c **** 		shape->center.y += (a->y + b->y + c->y + d->y) / 4 / shape->nFaces;
 641              		.loc 1 82 54 is_stmt 0 discriminator 1 view .LVU163
 642 00f4 86EE854A 		vdiv.f32	s8, s13, s10	@ tmp231, tmp229, _29
 643              	@ mini3d/shape.c:83: 		shape->center.y += (a->y + b->y + c->y + d->y) / 4 / shape->nFaces;
  83:mini3d/shape.c **** 		shape->center.z += (a->z + b->z + c->z + d->z) / 4 / shape->nFaces;
 644              		.loc 1 83 54 discriminator 1 view .LVU164
 645 00f8 C7EE056A 		vdiv.f32	s13, s14, s10	@ tmp243, tmp241, _29
 646              	@ mini3d/shape.c:84: 		shape->center.z += (a->z + b->z + c->z + d->z) / 4 / shape->nFaces;
 647              		.loc 1 84 54 discriminator 1 view .LVU165
 648 00fc 87EE857A 		vdiv.f32	s14, s15, s10	@ tmp255, tmp253, _29
ARM GAS  /tmp/ccs8Dd2F.s 			page 16


 649              	@ mini3d/shape.c:82: 		shape->center.x += (a->x + b->x + c->x + d->x) / 4 / shape->nFaces;
  82:mini3d/shape.c **** 		shape->center.y += (a->y + b->y + c->y + d->y) / 4 / shape->nFaces;
 650              		.loc 1 82 19 discriminator 1 view .LVU166
 651 0100 75EE845A 		vadd.f32	s11, s11, s8	@ tmp232, shape_86(D)->center.x, tmp231
 652              	@ mini3d/shape.c:92: }
  85:mini3d/shape.c **** 	}
  86:mini3d/shape.c **** 	else
  87:mini3d/shape.c **** 	{
  88:mini3d/shape.c **** 		shape->center.x += (a->x + b->x + c->x) / 3 / shape->nFaces;
  89:mini3d/shape.c **** 		shape->center.y += (a->y + b->y + c->y) / 3 / shape->nFaces;
  90:mini3d/shape.c **** 		shape->center.z += (a->z + b->z + c->z) / 3 / shape->nFaces;
  91:mini3d/shape.c **** 	}
  92:mini3d/shape.c **** }
 653              		.loc 1 92 1 discriminator 1 view .LVU167
 654 0104 BDEC028B 		vldm	sp!, {d8}	@
 655              	.LCFI5:
 656              		.cfi_remember_state
 657              		.cfi_restore 80
 658              		.cfi_restore 81
 659              		.cfi_def_cfa_offset 40
 660              	.LVL29:
 661              	@ mini3d/shape.c:82: 		shape->center.x += (a->x + b->x + c->x + d->x) / 4 / shape->nFaces;
  82:mini3d/shape.c **** 		shape->center.y += (a->y + b->y + c->y + d->y) / 4 / shape->nFaces;
 662              		.loc 1 82 19 discriminator 1 view .LVU168
 663 0108 C4ED055A 		vstr.32	s11, [r4, #20]	@ tmp232, shape_86(D)->center.x
  83:mini3d/shape.c **** 		shape->center.z += (a->z + b->z + c->z + d->z) / 4 / shape->nFaces;
 664              		.loc 1 83 3 is_stmt 1 discriminator 1 view .LVU169
 665              	@ mini3d/shape.c:83: 		shape->center.y += (a->y + b->y + c->y + d->y) / 4 / shape->nFaces;
  83:mini3d/shape.c **** 		shape->center.z += (a->z + b->z + c->z + d->z) / 4 / shape->nFaces;
 666              		.loc 1 83 19 is_stmt 0 discriminator 1 view .LVU170
 667 010c 76EE266A 		vadd.f32	s13, s12, s13	@ tmp244, shape_86(D)->center.y, tmp243
 668 0110 C4ED066A 		vstr.32	s13, [r4, #24]	@ tmp244, shape_86(D)->center.y
  84:mini3d/shape.c **** 	}
 669              		.loc 1 84 3 is_stmt 1 discriminator 1 view .LVU171
 670              	@ mini3d/shape.c:84: 		shape->center.z += (a->z + b->z + c->z + d->z) / 4 / shape->nFaces;
  84:mini3d/shape.c **** 	}
 671              		.loc 1 84 19 is_stmt 0 discriminator 1 view .LVU172
 672 0114 77EE247A 		vadd.f32	s15, s14, s9	@ _53, tmp255, shape_86(D)->center.z
 673 0118 C4ED077A 		vstr.32	s15, [r4, #28]	@ _53, shape_86(D)->center.z
 674              	@ mini3d/shape.c:92: }
 675              		.loc 1 92 1 discriminator 1 view .LVU173
 676 011c BDE8F88F 		pop	{r3, r4, r5, r6, r7, r8, r9, r10, fp, pc}	@
 677              	.LVL30:
 678              	.L33:
 679              	.LCFI6:
 680              		.cfi_restore_state
 681              	@ mini3d/shape.c:88: 		shape->center.x += (a->x + b->x + c->x) / 3 / shape->nFaces;
  88:mini3d/shape.c **** 		shape->center.y += (a->y + b->y + c->y) / 3 / shape->nFaces;
 682              		.loc 1 88 28 view .LVU174
 683 0120 97ED005A 		vldr.32	s10, [r7]	@ b_93(D)->x, b_93(D)->x
 684              	@ mini3d/shape.c:75: 	face->p4 = (d != NULL) ? Shape3D_addPoint(shape, d) : 0xffff;
  75:mini3d/shape.c **** 	face->colorBias = colorBias;
 685              		.loc 1 75 11 view .LVU175
 686 0124 4FF6FF72 		movw	r2, #65535	@ tmp258,
 687              	@ mini3d/shape.c:89: 		shape->center.y += (a->y + b->y + c->y) / 3 / shape->nFaces;
  89:mini3d/shape.c **** 		shape->center.z += (a->z + b->z + c->z) / 3 / shape->nFaces;
 688              		.loc 1 89 28 view .LVU176
ARM GAS  /tmp/ccs8Dd2F.s 			page 17


 689 0128 D7ED015A 		vldr.32	s11, [r7, #4]	@ b_93(D)->y, b_93(D)->y
 690              	@ mini3d/shape.c:90: 		shape->center.z += (a->z + b->z + c->z) / 3 / shape->nFaces;
  90:mini3d/shape.c **** 	}
 691              		.loc 1 90 28 view .LVU177
 692 012c 97ED026A 		vldr.32	s12, [r7, #8]	@ b_93(D)->z, b_93(D)->z
 693              	@ mini3d/shape.c:88: 		shape->center.x += (a->x + b->x + c->x) / 3 / shape->nFaces;
  88:mini3d/shape.c **** 		shape->center.y += (a->y + b->y + c->y) / 3 / shape->nFaces;
 694              		.loc 1 88 28 view .LVU178
 695 0130 D8ED006A 		vldr.32	s13, [r8]	@ a_90(D)->x, a_90(D)->x
 696              	@ mini3d/shape.c:89: 		shape->center.y += (a->y + b->y + c->y) / 3 / shape->nFaces;
  89:mini3d/shape.c **** 		shape->center.z += (a->z + b->z + c->z) / 3 / shape->nFaces;
 697              		.loc 1 89 28 view .LVU179
 698 0134 98ED017A 		vldr.32	s14, [r8, #4]	@ a_90(D)->y, a_90(D)->y
 699              	@ mini3d/shape.c:90: 		shape->center.z += (a->z + b->z + c->z) / 3 / shape->nFaces;
  90:mini3d/shape.c **** 	}
 700              		.loc 1 90 28 view .LVU180
 701 0138 D8ED027A 		vldr.32	s15, [r8, #8]	@ a_90(D)->z, a_90(D)->z
 702              	@ mini3d/shape.c:88: 		shape->center.x += (a->x + b->x + c->x) / 3 / shape->nFaces;
  88:mini3d/shape.c **** 		shape->center.y += (a->y + b->y + c->y) / 3 / shape->nFaces;
 703              		.loc 1 88 28 view .LVU181
 704 013c 76EE856A 		vadd.f32	s13, s13, s10	@ tmp260, a_90(D)->x, b_93(D)->x
 705              	@ mini3d/shape.c:89: 		shape->center.y += (a->y + b->y + c->y) / 3 / shape->nFaces;
  89:mini3d/shape.c **** 		shape->center.z += (a->z + b->z + c->z) / 3 / shape->nFaces;
 706              		.loc 1 89 28 view .LVU182
 707 0140 37EE257A 		vadd.f32	s14, s14, s11	@ tmp270, a_90(D)->y, b_93(D)->y
 708              	@ mini3d/shape.c:88: 		shape->center.x += (a->x + b->x + c->x) / 3 / shape->nFaces;
  88:mini3d/shape.c **** 		shape->center.y += (a->y + b->y + c->y) / 3 / shape->nFaces;
 709              		.loc 1 88 35 view .LVU183
 710 0144 D6ED004A 		vldr.32	s9, [r6]	@ c_96(D)->x, c_96(D)->x
 711              	@ mini3d/shape.c:90: 		shape->center.z += (a->z + b->z + c->z) / 3 / shape->nFaces;
  90:mini3d/shape.c **** 	}
 712              		.loc 1 90 28 view .LVU184
 713 0148 77EE867A 		vadd.f32	s15, s15, s12	@ tmp280, a_90(D)->z, b_93(D)->z
 714              	@ mini3d/shape.c:89: 		shape->center.y += (a->y + b->y + c->y) / 3 / shape->nFaces;
  89:mini3d/shape.c **** 		shape->center.z += (a->z + b->z + c->z) / 3 / shape->nFaces;
 715              		.loc 1 89 35 view .LVU185
 716 014c D6ED015A 		vldr.32	s11, [r6, #4]	@ c_96(D)->y, c_96(D)->y
 717              	@ mini3d/shape.c:90: 		shape->center.z += (a->z + b->z + c->z) / 3 / shape->nFaces;
  90:mini3d/shape.c **** 	}
 718              		.loc 1 90 35 view .LVU186
 719 0150 96ED026A 		vldr.32	s12, [r6, #8]	@ c_96(D)->z, c_96(D)->z
 720              	@ mini3d/shape.c:88: 		shape->center.x += (a->x + b->x + c->x) / 3 / shape->nFaces;
  88:mini3d/shape.c **** 		shape->center.y += (a->y + b->y + c->y) / 3 / shape->nFaces;
 721              		.loc 1 88 43 view .LVU187
 722 0154 B0EE085A 		vmov.f32	s10, #3.0e+0	@ tmp266,
 723              	@ mini3d/shape.c:88: 		shape->center.x += (a->x + b->x + c->x) / 3 / shape->nFaces;
  88:mini3d/shape.c **** 		shape->center.y += (a->y + b->y + c->y) / 3 / shape->nFaces;
 724              		.loc 1 88 35 view .LVU188
 725 0158 76EEA46A 		vadd.f32	s13, s13, s9	@ tmp263, tmp260, c_96(D)->x
 726              	@ mini3d/shape.c:78: 	++shape->nFaces;
  78:mini3d/shape.c **** 	
 727              		.loc 1 78 2 view .LVU189
 728 015c E368     		ldr	r3, [r4, #12]	@ shape_86(D)->nFaces, shape_86(D)->nFaces
 729              	@ mini3d/shape.c:89: 		shape->center.y += (a->y + b->y + c->y) / 3 / shape->nFaces;
  89:mini3d/shape.c **** 		shape->center.z += (a->z + b->z + c->z) / 3 / shape->nFaces;
 730              		.loc 1 89 35 view .LVU190
 731 015e 37EE257A 		vadd.f32	s14, s14, s11	@ tmp273, tmp270, c_96(D)->y
ARM GAS  /tmp/ccs8Dd2F.s 			page 18


 732              	@ mini3d/shape.c:90: 		shape->center.z += (a->z + b->z + c->z) / 3 / shape->nFaces;
  90:mini3d/shape.c **** 	}
 733              		.loc 1 90 19 view .LVU191
 734 0162 D4ED074A 		vldr.32	s9, [r4, #28]	@ shape_86(D)->center.z, shape_86(D)->center.z
 735              	@ mini3d/shape.c:90: 		shape->center.z += (a->z + b->z + c->z) / 3 / shape->nFaces;
  90:mini3d/shape.c **** 	}
 736              		.loc 1 90 35 view .LVU192
 737 0166 77EE867A 		vadd.f32	s15, s15, s12	@ tmp283, tmp280, c_96(D)->z
 738              	@ mini3d/shape.c:78: 	++shape->nFaces;
  78:mini3d/shape.c **** 	
 739              		.loc 1 78 2 view .LVU193
 740 016a 0133     		adds	r3, r3, #1	@ _124, shape_86(D)->nFaces,
 741              	@ mini3d/shape.c:88: 		shape->center.x += (a->x + b->x + c->x) / 3 / shape->nFaces;
  88:mini3d/shape.c **** 		shape->center.y += (a->y + b->y + c->y) / 3 / shape->nFaces;
 742              		.loc 1 88 43 view .LVU194
 743 016c 86EE853A 		vdiv.f32	s6, s13, s10	@ tmp265, tmp263, tmp266
 744              	@ mini3d/shape.c:88: 		shape->center.x += (a->x + b->x + c->x) / 3 / shape->nFaces;
  88:mini3d/shape.c **** 		shape->center.y += (a->y + b->y + c->y) / 3 / shape->nFaces;
 745              		.loc 1 88 19 view .LVU195
 746 0170 D4ED055A 		vldr.32	s11, [r4, #20]	@ shape_86(D)->center.x, shape_86(D)->center.x
 747              	@ mini3d/shape.c:89: 		shape->center.y += (a->y + b->y + c->y) / 3 / shape->nFaces;
  89:mini3d/shape.c **** 		shape->center.z += (a->z + b->z + c->z) / 3 / shape->nFaces;
 748              		.loc 1 89 19 view .LVU196
 749 0174 94ED066A 		vldr.32	s12, [r4, #24]	@ shape_86(D)->center.y, shape_86(D)->center.y
 750              	@ mini3d/shape.c:76: 	face->colorBias = colorBias;
  76:mini3d/shape.c **** 	
 751              		.loc 1 76 18 view .LVU197
 752 0178 8AED028A 		vstr.32	s16, [r10, #8]	@ colorBias, face_89->colorBias
 753              	@ mini3d/shape.c:75: 	face->p4 = (d != NULL) ? Shape3D_addPoint(shape, d) : 0xffff;
  75:mini3d/shape.c **** 	face->colorBias = colorBias;
 754              		.loc 1 75 11 view .LVU198
 755 017c AAF80620 		strh	r2, [r10, #6]	@ movhi	@ tmp258, face_89->p4
  76:mini3d/shape.c **** 	
 756              		.loc 1 76 2 is_stmt 1 view .LVU199
  78:mini3d/shape.c **** 	
 757              		.loc 1 78 2 view .LVU200
 758 0180 E360     		str	r3, [r4, #12]	@ _124, shape_86(D)->nFaces
  80:mini3d/shape.c **** 	{
 759              		.loc 1 80 2 view .LVU201
  88:mini3d/shape.c **** 		shape->center.y += (a->y + b->y + c->y) / 3 / shape->nFaces;
 760              		.loc 1 88 3 view .LVU202
 761              	@ mini3d/shape.c:90: 		shape->center.z += (a->z + b->z + c->z) / 3 / shape->nFaces;
  90:mini3d/shape.c **** 	}
 762              		.loc 1 90 43 is_stmt 0 view .LVU203
 763 0182 87EE854A 		vdiv.f32	s8, s15, s10	@ tmp285, tmp283, tmp266
 764              	@ mini3d/shape.c:88: 		shape->center.x += (a->x + b->x + c->x) / 3 / shape->nFaces;
  88:mini3d/shape.c **** 		shape->center.y += (a->y + b->y + c->y) / 3 / shape->nFaces;
 765              		.loc 1 88 47 view .LVU204
 766 0186 07EE903A 		vmov	s15, r3	@ int	@ _124, _124
 767              	@ mini3d/shape.c:89: 		shape->center.y += (a->y + b->y + c->y) / 3 / shape->nFaces;
  89:mini3d/shape.c **** 		shape->center.z += (a->z + b->z + c->z) / 3 / shape->nFaces;
 768              		.loc 1 89 43 view .LVU205
 769 018a C7EE053A 		vdiv.f32	s7, s14, s10	@ tmp275, tmp273, tmp266
 770              	@ mini3d/shape.c:88: 		shape->center.x += (a->x + b->x + c->x) / 3 / shape->nFaces;
  88:mini3d/shape.c **** 		shape->center.y += (a->y + b->y + c->y) / 3 / shape->nFaces;
 771              		.loc 1 88 47 view .LVU206
 772 018e B8EEE77A 		vcvt.f32.s32	s14, s15	@ _61, _124
ARM GAS  /tmp/ccs8Dd2F.s 			page 19


 773              	@ mini3d/shape.c:92: }
 774              		.loc 1 92 1 view .LVU207
 775 0192 BDEC028B 		vldm	sp!, {d8}	@
 776              	.LCFI7:
 777              		.cfi_restore 80
 778              		.cfi_restore 81
 779              		.cfi_def_cfa_offset 40
 780              	.LVL31:
 781              	@ mini3d/shape.c:88: 		shape->center.x += (a->x + b->x + c->x) / 3 / shape->nFaces;
  88:mini3d/shape.c **** 		shape->center.y += (a->y + b->y + c->y) / 3 / shape->nFaces;
 782              		.loc 1 88 47 view .LVU208
 783 0196 C3EE076A 		vdiv.f32	s13, s6, s14	@ tmp267, tmp265, _61
 784              	@ mini3d/shape.c:90: 		shape->center.z += (a->z + b->z + c->z) / 3 / shape->nFaces;
  90:mini3d/shape.c **** 	}
 785              		.loc 1 90 47 view .LVU209
 786 019a C4EE077A 		vdiv.f32	s15, s8, s14	@ tmp287, tmp285, _61
 787              	@ mini3d/shape.c:89: 		shape->center.y += (a->y + b->y + c->y) / 3 / shape->nFaces;
  89:mini3d/shape.c **** 		shape->center.z += (a->z + b->z + c->z) / 3 / shape->nFaces;
 788              		.loc 1 89 47 view .LVU210
 789 019e 83EE875A 		vdiv.f32	s10, s7, s14	@ tmp277, tmp275, _61
 790              	@ mini3d/shape.c:88: 		shape->center.x += (a->x + b->x + c->x) / 3 / shape->nFaces;
  88:mini3d/shape.c **** 		shape->center.y += (a->y + b->y + c->y) / 3 / shape->nFaces;
 791              		.loc 1 88 19 view .LVU211
 792 01a2 75EEA66A 		vadd.f32	s13, s11, s13	@ tmp268, shape_86(D)->center.x, tmp267
 793 01a6 C4ED056A 		vstr.32	s13, [r4, #20]	@ tmp268, shape_86(D)->center.x
  89:mini3d/shape.c **** 		shape->center.z += (a->z + b->z + c->z) / 3 / shape->nFaces;
 794              		.loc 1 89 3 is_stmt 1 view .LVU212
 795              	@ mini3d/shape.c:90: 		shape->center.z += (a->z + b->z + c->z) / 3 / shape->nFaces;
  90:mini3d/shape.c **** 	}
 796              		.loc 1 90 19 is_stmt 0 view .LVU213
 797 01aa 77EEA47A 		vadd.f32	s15, s15, s9	@ _53, tmp287, shape_86(D)->center.z
 798              	@ mini3d/shape.c:84: 		shape->center.z += (a->z + b->z + c->z + d->z) / 4 / shape->nFaces;
  84:mini3d/shape.c **** 	}
 799              		.loc 1 84 19 view .LVU214
 800 01ae C4ED077A 		vstr.32	s15, [r4, #28]	@ _53, shape_86(D)->center.z
 801              	@ mini3d/shape.c:89: 		shape->center.y += (a->y + b->y + c->y) / 3 / shape->nFaces;
  89:mini3d/shape.c **** 		shape->center.z += (a->z + b->z + c->z) / 3 / shape->nFaces;
 802              		.loc 1 89 19 view .LVU215
 803 01b2 36EE057A 		vadd.f32	s14, s12, s10	@ tmp278, shape_86(D)->center.y, tmp277
 804 01b6 84ED067A 		vstr.32	s14, [r4, #24]	@ tmp278, shape_86(D)->center.y
  90:mini3d/shape.c **** 	}
 805              		.loc 1 90 3 is_stmt 1 view .LVU216
 806              	@ mini3d/shape.c:92: }
 807              		.loc 1 92 1 is_stmt 0 view .LVU217
 808 01ba BDE8F88F 		pop	{r3, r4, r5, r6, r7, r8, r9, r10, fp, pc}	@
 809              	.LVL32:
 810              	.L37:
 811              		.loc 1 92 1 view .LVU218
 812 01be 00BF     		.align	2
 813              	.L36:
 814 01c0 00000000 		.word	m3d_realloc
 815              		.cfi_endproc
 816              	.LFE16:
 817              		.size	Shape3D_addFace, .-Shape3D_addFace
 818              		.section	.text.Shape3D_setClosed,"ax",%progbits
 819              		.align	1
 820              		.p2align 4,,15
ARM GAS  /tmp/ccs8Dd2F.s 			page 20


 821              		.global	Shape3D_setClosed
 822              		.syntax unified
 823              		.thumb
 824              		.thumb_func
 825              		.type	Shape3D_setClosed, %function
 826              	Shape3D_setClosed:
 827              	.LVL33:
 828              	.LFB17:
  93:mini3d/shape.c **** 
  94:mini3d/shape.c **** void Shape3D_setClosed(Shape3D* shape, int flag)
  95:mini3d/shape.c **** {
 829              		.loc 1 95 1 is_stmt 1 view -0
 830              		.cfi_startproc
 831              		@ args = 0, pretend = 0, frame = 0
 832              		@ frame_needed = 0, uses_anonymous_args = 0
 833              		@ link register save eliminated.
  96:mini3d/shape.c **** 	shape->isClosed = flag;
 834              		.loc 1 96 2 view .LVU220
 835              	@ mini3d/shape.c:96: 	shape->isClosed = flag;
 836              		.loc 1 96 18 is_stmt 0 view .LVU221
 837 0000 90F82430 		ldrb	r3, [r0, #36]	@ zero_extendqisi2	@, shape_4(D)->isClosed
 838 0004 61F30003 		bfi	r3, r1, #0, #1	@ shape_4(D)->isClosed, tmp119,,
 839 0008 80F82430 		strb	r3, [r0, #36]	@ shape_4(D)->isClosed, shape_4(D)->isClosed
 840              	@ mini3d/shape.c:97: }
  97:mini3d/shape.c **** }
 841              		.loc 1 97 1 view .LVU222
 842 000c 7047     		bx	lr	@
 843              		.cfi_endproc
 844              	.LFE17:
 845              		.size	Shape3D_setClosed, .-Shape3D_setClosed
 846 000e 00BF     		.section	.text.Shape3D_setOrderTableSize,"ax",%progbits
 847              		.align	1
 848              		.p2align 4,,15
 849              		.global	Shape3D_setOrderTableSize
 850              		.syntax unified
 851              		.thumb
 852              		.thumb_func
 853              		.type	Shape3D_setOrderTableSize, %function
 854              	Shape3D_setOrderTableSize:
 855              	.LVL34:
 856              	.LFB18:
  98:mini3d/shape.c **** 
  99:mini3d/shape.c **** #if ENABLE_ORDERING_TABLE
 100:mini3d/shape.c **** void Shape3D_setOrderTableSize(Shape3D* shape, int size)
 101:mini3d/shape.c **** {
 857              		.loc 1 101 1 is_stmt 1 view -0
 858              		.cfi_startproc
 859              		@ args = 0, pretend = 0, frame = 0
 860              		@ frame_needed = 0, uses_anonymous_args = 0
 861              		@ link register save eliminated.
 102:mini3d/shape.c **** 	shape->orderTableSize = size;
 862              		.loc 1 102 2 view .LVU224
 863              	@ mini3d/shape.c:102: 	shape->orderTableSize = size;
 864              		.loc 1 102 24 is_stmt 0 view .LVU225
 865 0000 8162     		str	r1, [r0, #40]	@ tmp116, shape_2(D)->orderTableSize
 866              	@ mini3d/shape.c:103: }
 103:mini3d/shape.c **** }
ARM GAS  /tmp/ccs8Dd2F.s 			page 21


 867              		.loc 1 103 1 view .LVU226
 868 0002 7047     		bx	lr	@
 869              		.cfi_endproc
 870              	.LFE18:
 871              		.size	Shape3D_setOrderTableSize, .-Shape3D_setOrderTableSize
 872              		.text
 873              	.Letext0:
 874              		.file 3 "/usr/lib/gcc/arm-none-eabi/12.2.0/include/stddef.h"
 875              		.file 4 "/usr/arm-none-eabi/include/machine/_default_types.h"
 876              		.file 5 "/usr/arm-none-eabi/include/sys/_stdint.h"
 877              		.file 6 "mini3d/shape.h"
 878              		.file 7 "mini3d/mini3d.h"